target datalayout = "e-m:e-p270:32:32-p271:32:32-p272:64:64-i64:64-i128:128-f80:128-n8:16:32:64-S128"
target triple = "x86_64-pc-linux-gnu"

@.str.14 = private unnamed_addr constant [28 x i8] c"../openssl/test/x509_test.c\00", align 1
@pubkey = internal global ptr null, align 8
@privkey = internal global ptr null, align 8
@signmd = internal global ptr null, align 8
@.str.22 = private unnamed_addr constant [41 x i8] c"x = d2i_X509(NULL, &p, sizeof(certdata))\00", align 1
@.str.23 = private unnamed_addr constant [30 x i8] c"X509_sign(x, privkey, signmd)\00", align 1
@.str.24 = private unnamed_addr constant [2 x i8] c"0\00", align 1
@.str.25 = private unnamed_addr constant [23 x i8] c"X509_verify(x, pubkey)\00", align 1
@.str.26 = private unnamed_addr constant [2 x i8] c"1\00", align 1

; Function Attrs: nounwind uwtable
define internal i32 @test_x509_tbs_cache() #0 {
  %1 = alloca i32, align 4
  %2 = alloca ptr, align 8
  %3 = alloca ptr, align 8
  call void @llvm.lifetime.start.p0(i64 4, ptr %1) #3
  call void @llvm.lifetime.start.p0(i64 8, ptr %2) #3
  store ptr null, ptr %2, align 8, !tbaa !17
  call void @llvm.lifetime.start.p0(i64 8, ptr %3) #3
  store ptr @certdata, ptr %3, align 8, !tbaa !8
  %4 = call ptr @d2i_X509(ptr noundef null, ptr noundef %3, i64 noundef 394)
  store ptr %4, ptr %2, align 8, !tbaa !17
  %5 = call i32 @test_ptr(ptr noundef @.str.14, i32 noundef 98, ptr noundef @.str.22, ptr noundef %4)
  %6 = icmp ne i32 %5, 0
  br i1 %6, label %7, label %20

7:                                                ; preds = %0
  %8 = load ptr, ptr %2, align 8, !tbaa !17
  %9 = load ptr, ptr @privkey, align 8, !tbaa !11
  %10 = load ptr, ptr @signmd, align 8, !tbaa !15
  %11 = call i32 @X509_sign(ptr noundef %8, ptr noundef %9, ptr noundef %10)
  %12 = call i32 @test_int_gt(ptr noundef @.str.14, i32 noundef 99, ptr noundef @.str.23, ptr noundef @.str.24, i32 noundef %11, i32 noundef 0)
  %13 = icmp ne i32 %12, 0
  br i1 %13, label %14, label %20

14:                                               ; preds = %7
  %15 = load ptr, ptr %2, align 8, !tbaa !17
  %16 = load ptr, ptr @pubkey, align 8, !tbaa !11
  %17 = call i32 @X509_verify(ptr noundef %15, ptr noundef %16)
  %18 = call i32 @test_int_eq(ptr noundef @.str.14, i32 noundef 100, ptr noundef @.str.25, ptr noundef @.str.26, i32 noundef %17, i32 noundef 1)
  %19 = icmp ne i32 %18, 0
  br label %20

20:                                               ; preds = %14, %7, %0
  %21 = phi i1 [ false, %7 ], [ false, %0 ], [ %19, %14 ]
  %22 = zext i1 %21 to i32
  store i32 %22, ptr %1, align 4, !tbaa !4
  %23 = load ptr, ptr %2, align 8, !tbaa !17
  call void @X509_free(ptr noundef %23)
  %24 = load i32, ptr %1, align 4, !tbaa !4
  call void @llvm.lifetime.end.p0(i64 8, ptr %3) #3
  call void @llvm.lifetime.end.p0(i64 8, ptr %2) #3
  call void @llvm.lifetime.end.p0(i64 4, ptr %1) #3
  ret i32 %24
}